target datalayout = "e-m:e-p270:32:32-p271:32:32-p272:64:64-i64:64-i128:128-f80:128-n8:16:32:64-S128"
target triple = "x86_64-pc-linux-gnu"

%struct.lxb_html_tokenizer = type { ptr, ptr, ptr, ptr, ptr, ptr, ptr, ptr, ptr, ptr, ptr, ptr, ptr, ptr, ptr, i64, ptr, ptr, ptr, ptr, ptr, i64, i64, ptr, ptr, i64, i64, i32, i32, i8, i32, i32, i8, ptr, i64 }
%struct.lxb_html_token_t = type { ptr, ptr, i64, i64, ptr, ptr, ptr, ptr, ptr, i64, i64, i32 }

; Function Attrs: nounwind uwtable
define internal void @lxb_html_token_clean(ptr noundef %0) #0 {
  %2 = alloca ptr, align 8
  store ptr %0, ptr %2, align 8
  %3 = load ptr, ptr %2, align 8
  call void @llvm.memset.p0.i64(ptr align 8 %3, i8 0, i64 96, i1 false)
  ret void
}

; Function Attrs: nounwind uwtable
define internal ptr @lxb_html_tokenizer_state_comment_start(ptr noundef %0, ptr noundef %1, ptr noundef %2) #0 {
  %4 = alloca ptr, align 8
  %5 = alloca ptr, align 8
  %6 = alloca ptr, align 8
  %7 = alloca ptr, align 8
  store ptr %0, ptr %5, align 8
  store ptr %1, ptr %6, align 8
  store ptr %2, ptr %7, align 8
  %8 = load ptr, ptr %6, align 8
  %9 = load i8, ptr %8, align 1
  %10 = zext i8 %9 to i32
  %11 = icmp eq i32 %10, 45
  br i1 %11, label %12, label %17

12:                                               ; preds = %3
  %13 = load ptr, ptr %6, align 8
  %14 = getelementptr inbounds i8, ptr %13, i32 1
  store ptr %14, ptr %6, align 8
  %15 = load ptr, ptr %5, align 8
  %16 = getelementptr inbounds %struct.lxb_html_tokenizer, ptr %15, i32 0, i32 0
  store ptr @lxb_html_tokenizer_state_comment_start_dash, ptr %16, align 8
  br label %85

17:                                               ; preds = %3
  %18 = load ptr, ptr %6, align 8
  %19 = load i8, ptr %18, align 1
  %20 = zext i8 %19 to i32
  %21 = icmp eq i32 %20, 62
  br i1 %21, label %22, label %81

22:                                               ; preds = %17
  %23 = load ptr, ptr %5, align 8
  %24 = getelementptr inbounds %struct.lxb_html_tokenizer, ptr %23, i32 0, i32 0
  store ptr @lxb_html_tokenizer_state_data_before, ptr %24, align 8
  %25 = load ptr, ptr %5, align 8
  %26 = getelementptr inbounds %struct.lxb_html_tokenizer, ptr %25, i32 0, i32 11
  %27 = load ptr, ptr %26, align 8
  %28 = load ptr, ptr %6, align 8
  %29 = call ptr @lxb_html_tokenizer_error_add(ptr noundef %27, ptr noundef %28, i32 noundef 0)
  br label %30

30:                                               ; preds = %22
  %31 = load ptr, ptr %5, align 8
  %32 = getelementptr inbounds %struct.lxb_html_tokenizer, ptr %31, i32 0, i32 16
  %33 = load ptr, ptr %32, align 8
  %34 = load ptr, ptr %5, align 8
  %35 = getelementptr inbounds %struct.lxb_html_tokenizer, ptr %34, i32 0, i32 8
  %36 = load ptr, ptr %35, align 8
  %37 = getelementptr inbounds %struct.lxb_html_token_t, ptr %36, i32 0, i32 4
  store ptr %33, ptr %37, align 8
  %38 = load ptr, ptr %5, align 8
  %39 = getelementptr inbounds %struct.lxb_html_tokenizer, ptr %38, i32 0, i32 17
  %40 = load ptr, ptr %39, align 8
  %41 = load ptr, ptr %5, align 8
  %42 = getelementptr inbounds %struct.lxb_html_tokenizer, ptr %41, i32 0, i32 8
  %43 = load ptr, ptr %42, align 8
  %44 = getelementptr inbounds %struct.lxb_html_token_t, ptr %43, i32 0, i32 5
  store ptr %40, ptr %44, align 8
  br label %45

45:                                               ; preds = %30
  br label %46

46:                                               ; preds = %45
  %47 = load ptr, ptr %5, align 8
  %48 = getelementptr inbounds %struct.lxb_html_tokenizer, ptr %47, i32 0, i32 2
  %49 = load ptr, ptr %48, align 8
  %50 = load ptr, ptr %5, align 8
  %51 = load ptr, ptr %5, align 8
  %52 = getelementptr inbounds %struct.lxb_html_tokenizer, ptr %51, i32 0, i32 8
  %53 = load ptr, ptr %52, align 8
  %54 = load ptr, ptr %5, align 8
  %55 = getelementptr inbounds %struct.lxb_html_tokenizer, ptr %54, i32 0, i32 3
  %56 = load ptr, ptr %55, align 8
  %57 = call ptr %49(ptr noundef %50, ptr noundef %53, ptr noundef %56)
  %58 = load ptr, ptr %5, align 8
  %59 = getelementptr inbounds %struct.lxb_html_tokenizer, ptr %58, i32 0, i32 8
  store ptr %57, ptr %59, align 8
  %60 = load ptr, ptr %5, align 8
  %61 = getelementptr inbounds %struct.lxb_html_tokenizer, ptr %60, i32 0, i32 8
  %62 = load ptr, ptr %61, align 8
  %63 = icmp eq ptr %62, null
  br i1 %63, label %64, label %74

64:                                               ; preds = %46
  %65 = load ptr, ptr %5, align 8
  %66 = getelementptr inbounds %struct.lxb_html_tokenizer, ptr %65, i32 0, i32 31
  %67 = load i32, ptr %66, align 8
  %68 = icmp eq i32 %67, 0
  br i1 %68, label %69, label %72

69:                                               ; preds = %64
  %70 = load ptr, ptr %5, align 8
  %71 = getelementptr inbounds %struct.lxb_html_tokenizer, ptr %70, i32 0, i32 31
  store i32 1, ptr %71, align 8
  br label %72

72:                                               ; preds = %69, %64
  %73 = load ptr, ptr %7, align 8
  store ptr %73, ptr %4, align 8
  br label %87

74:                                               ; preds = %46
  %75 = load ptr, ptr %5, align 8
  %76 = getelementptr inbounds %struct.lxb_html_tokenizer, ptr %75, i32 0, i32 8
  %77 = load ptr, ptr %76, align 8
  call void @lxb_html_token_clean(ptr noundef %77)
  br label %78

78:                                               ; preds = %74
  %79 = load ptr, ptr %6, align 8
  %80 = getelementptr inbounds i8, ptr %79, i32 1
  store ptr %80, ptr %6, align 8
  br label %84

81:                                               ; preds = %17
  %82 = load ptr, ptr %5, align 8
  %83 = getelementptr inbounds %struct.lxb_html_tokenizer, ptr %82, i32 0, i32 0
  store ptr @lxb_html_tokenizer_state_comment, ptr %83, align 8
  br label %84

84:                                               ; preds = %81, %78
  br label %85

85:                                               ; preds = %84, %12
  %86 = load ptr, ptr %6, align 8
  store ptr %86, ptr %4, align 8
  br label %87

87:                                               ; preds = %85, %72
  %88 = load ptr, ptr %4, align 8
  ret ptr %88
}

; Function Attrs: nounwind uwtable
define hidden ptr @lxb_html_tokenizer_state_comment_before_start(ptr noundef %0, ptr noundef %1, ptr noundef %2) #0 {
  %4 = alloca ptr, align 8
  %5 = alloca ptr, align 8
  %6 = alloca ptr, align 8
  store ptr %0, ptr %4, align 8
  store ptr %1, ptr %5, align 8
  store ptr %2, ptr %6, align 8
  %7 = load ptr, ptr %4, align 8
  %8 = getelementptr inbounds %struct.lxb_html_tokenizer, ptr %7, i32 0, i32 32
  %9 = load i8, ptr %8, align 4
  %10 = trunc i8 %9 to i1
  %11 = zext i1 %10 to i32
  %12 = icmp eq i32 %11, 0
  br i1 %12, label %13, label %45

13:                                               ; preds = %3
  br label %14

14:                                               ; preds = %13
  %15 = load ptr, ptr %4, align 8
  %16 = getelementptr inbounds %struct.lxb_html_tokenizer, ptr %15, i32 0, i32 16
  %17 = load ptr, ptr %16, align 8
  %18 = load ptr, ptr %4, align 8
  %19 = getelementptr inbounds %struct.lxb_html_tokenizer, ptr %18, i32 0, i32 17
  store ptr %17, ptr %19, align 8
  %20 = load ptr, ptr %5, align 8
  %21 = load ptr, ptr %4, align 8
  %22 = getelementptr inbounds %struct.lxb_html_tokenizer, ptr %21, i32 0, i32 8
  %23 = load ptr, ptr %22, align 8
  %24 = getelementptr inbounds %struct.lxb_html_token_t, ptr %23, i32 0, i32 0
  store ptr %20, ptr %24, align 8
  %25 = load ptr, ptr %4, align 8
  %26 = getelementptr inbounds %struct.lxb_html_tokenizer, ptr %25, i32 0, i32 21
  %27 = load i64, ptr %26, align 8
  %28 = load ptr, ptr %4, align 8
  %29 = getelementptr inbounds %struct.lxb_html_tokenizer, ptr %28, i32 0, i32 8
  %30 = load ptr, ptr %29, align 8
  %31 = getelementptr inbounds %struct.lxb_html_token_t, ptr %30, i32 0, i32 2
  store i64 %27, ptr %31, align 8
  %32 = load ptr, ptr %4, align 8
  %33 = getelementptr inbounds %struct.lxb_html_tokenizer, ptr %32, i32 0, i32 22
  %34 = load i64, ptr %33, align 8
  %35 = load ptr, ptr %4, align 8
  %36 = getelementptr inbounds %struct.lxb_html_tokenizer, ptr %35, i32 0, i32 8
  %37 = load ptr, ptr %36, align 8
  %38 = getelementptr inbounds %struct.lxb_html_token_t, ptr %37, i32 0, i32 3
  store i64 %34, ptr %38, align 8
  br label %39

39:                                               ; preds = %14
  %40 = load ptr, ptr %5, align 8
  %41 = load ptr, ptr %4, align 8
  %42 = getelementptr inbounds %struct.lxb_html_tokenizer, ptr %41, i32 0, i32 8
  %43 = load ptr, ptr %42, align 8
  %44 = getelementptr inbounds %struct.lxb_html_token_t, ptr %43, i32 0, i32 1
  store ptr %40, ptr %44, align 8
  br label %45

45:                                               ; preds = %39, %3
  %46 = load ptr, ptr %4, align 8
  %47 = getelementptr inbounds %struct.lxb_html_tokenizer, ptr %46, i32 0, i32 8
  %48 = load ptr, ptr %47, align 8
  %49 = getelementptr inbounds %struct.lxb_html_token_t, ptr %48, i32 0, i32 10
  store i64 4, ptr %49, align 8
  %50 = load ptr, ptr %4, align 8
  %51 = load ptr, ptr %5, align 8
  %52 = load ptr, ptr %6, align 8
  %53 = call ptr @lxb_html_tokenizer_state_comment_start(ptr noundef %50, ptr noundef %51, ptr noundef %52)
  ret ptr %53
}