; Function Attrs: nounwind uwtable
define hidden ptr @lxb_html_tokenizer_state_comment_before_start(ptr noundef %0, ptr noundef %1, ptr noundef readnone %2) local_unnamed_addr #0 {
  %4 = getelementptr inbounds i8, ptr %0, i64 236
  %5 = load i8, ptr %4, align 4
  %6 = and i8 %5, 1
  %7 = icmp eq i8 %6, 0
  br i1 %7, label %8, label %24

8:                                                ; preds = %3
  %9 = getelementptr inbounds i8, ptr %0, i64 128
  %10 = load ptr, ptr %9, align 8
  %11 = getelementptr inbounds i8, ptr %0, i64 136
  store ptr %10, ptr %11, align 8
  %12 = getelementptr inbounds i8, ptr %0, i64 64
  %13 = load ptr, ptr %12, align 8
  store ptr %1, ptr %13, align 8
  %14 = getelementptr inbounds i8, ptr %0, i64 168
  %15 = load i64, ptr %14, align 8
  %16 = load ptr, ptr %12, align 8
  %17 = getelementptr inbounds i8, ptr %16, i64 16
  store i64 %15, ptr %17, align 8
  %18 = getelementptr inbounds i8, ptr %0, i64 176
  %19 = load i64, ptr %18, align 8
  %20 = load ptr, ptr %12, align 8
  %21 = getelementptr inbounds i8, ptr %20, i64 24
  store i64 %19, ptr %21, align 8
  %22 = load ptr, ptr %12, align 8
  %23 = getelementptr inbounds i8, ptr %22, i64 8
  store ptr %1, ptr %23, align 8
  br label %24

24:                                               ; preds = %8, %3
  %25 = getelementptr inbounds i8, ptr %0, i64 64
  %26 = load ptr, ptr %25, align 8
  %27 = getelementptr inbounds i8, ptr %26, i64 80
  store i64 4, ptr %27, align 8
  %28 = load i8, ptr %1, align 1
  switch i8 %28, label %57 [
    i8 45, label %29
    i8 62, label %31
  ]

29:                                               ; preds = %24
  %30 = getelementptr inbounds i8, ptr %1, i64 1
  store ptr @lxb_html_tokenizer_state_comment_start_dash, ptr %0, align 8
  br label %lxb_html_tokenizer_state_comment_start.exit

31:                                               ; preds = %24
  store ptr @lxb_html_tokenizer_state_data_before, ptr %0, align 8
  %32 = getelementptr inbounds i8, ptr %0, i64 88
  %33 = load ptr, ptr %32, align 8
  %34 = tail call ptr @lxb_html_tokenizer_error_add(ptr noundef %33, ptr noundef nonnull %1, i32 noundef 0) #5
  %35 = getelementptr inbounds i8, ptr %0, i64 128
  %36 = load ptr, ptr %35, align 8
  %37 = load ptr, ptr %25, align 8
  %38 = getelementptr inbounds i8, ptr %37, i64 32
  store ptr %36, ptr %38, align 8
  %39 = getelementptr inbounds i8, ptr %0, i64 136
  %40 = load ptr, ptr %39, align 8
  %41 = load ptr, ptr %25, align 8
  %42 = getelementptr inbounds i8, ptr %41, i64 40
  store ptr %40, ptr %42, align 8
  %43 = getelementptr inbounds i8, ptr %0, i64 16
  %44 = load ptr, ptr %43, align 8
  %45 = load ptr, ptr %25, align 8
  %46 = getelementptr inbounds i8, ptr %0, i64 24
  %47 = load ptr, ptr %46, align 8
  %48 = tail call ptr %44(ptr noundef nonnull %0, ptr noundef %45, ptr noundef %47) #5
  store ptr %48, ptr %25, align 8
  %49 = icmp eq ptr %48, null
  br i1 %49, label %50, label %55

50:                                               ; preds = %31
  %51 = getelementptr inbounds i8, ptr %0, i64 232
  %52 = load i32, ptr %51, align 8
  %53 = icmp eq i32 %52, 0
  br i1 %53, label %54, label %lxb_html_tokenizer_state_comment_start.exit

54:                                               ; preds = %50
  store i32 1, ptr %51, align 8
  br label %lxb_html_tokenizer_state_comment_start.exit

55:                                               ; preds = %31
  tail call void @llvm.memset.p0.i64(ptr noundef nonnull align 8 dereferenceable(96) %48, i8 0, i64 96, i1 false)
  %56 = getelementptr inbounds i8, ptr %1, i64 1
  br label %lxb_html_tokenizer_state_comment_start.exit

57:                                               ; preds = %24
  store ptr @lxb_html_tokenizer_state_comment, ptr %0, align 8
  br label %lxb_html_tokenizer_state_comment_start.exit

lxb_html_tokenizer_state_comment_start.exit:      ; preds = %29, %50, %54, %55, %57
  %.0.i = phi ptr [ %2, %54 ], [ %2, %50 ], [ %30, %29 ], [ %56, %55 ], [ %1, %57 ]
  ret ptr %.0.i
}